target datalayout = "e-m:e-p270:32:32-p271:32:32-p272:64:64-i64:64-i128:128-f80:128-n8:16:32:64-S128"
target triple = "x86_64-pc-linux-gnu"

%struct.Vec_Int_t_ = type { i32, i32, ptr }
%struct.Vec_Mem_t_ = type { i32, i32, i32, i32, i32, i32, ptr, ptr, ptr }

; Function Attrs: inlinehint nounwind uwtable
define internal ptr @Vec_IntAlloc(i32 noundef %0) #4 {
  %2 = alloca i32, align 4
  %3 = alloca ptr, align 8
  store i32 %0, ptr %2, align 4, !tbaa !3
  call void @llvm.lifetime.start.p0(i64 8, ptr %3) #12
  %4 = call noalias ptr @malloc(i64 noundef 16) #14
  store ptr %4, ptr %3, align 8, !tbaa !14
  %5 = load i32, ptr %2, align 4, !tbaa !3
  %6 = icmp sgt i32 %5, 0
  br i1 %6, label %7, label %11

7:                                                ; preds = %1
  %8 = load i32, ptr %2, align 4, !tbaa !3
  %9 = icmp slt i32 %8, 16
  br i1 %9, label %10, label %11

10:                                               ; preds = %7
  store i32 16, ptr %2, align 4, !tbaa !3
  br label %11

11:                                               ; preds = %10, %7, %1
  %12 = load ptr, ptr %3, align 8, !tbaa !14
  %13 = getelementptr inbounds nuw %struct.Vec_Int_t_, ptr %12, i32 0, i32 1
  store i32 0, ptr %13, align 4, !tbaa !22
  %14 = load i32, ptr %2, align 4, !tbaa !3
  %15 = load ptr, ptr %3, align 8, !tbaa !14
  %16 = getelementptr inbounds nuw %struct.Vec_Int_t_, ptr %15, i32 0, i32 0
  store i32 %14, ptr %16, align 8, !tbaa !24
  %17 = load ptr, ptr %3, align 8, !tbaa !14
  %18 = getelementptr inbounds nuw %struct.Vec_Int_t_, ptr %17, i32 0, i32 0
  %19 = load i32, ptr %18, align 8, !tbaa !24
  %20 = icmp ne i32 %19, 0
  br i1 %20, label %21, label %28

21:                                               ; preds = %11
  %22 = load ptr, ptr %3, align 8, !tbaa !14
  %23 = getelementptr inbounds nuw %struct.Vec_Int_t_, ptr %22, i32 0, i32 0
  %24 = load i32, ptr %23, align 8, !tbaa !24
  %25 = sext i32 %24 to i64
  %26 = mul i64 4, %25
  %27 = call noalias ptr @malloc(i64 noundef %26) #14
  br label %29

28:                                               ; preds = %11
  br label %29

29:                                               ; preds = %28, %21
  %30 = phi ptr [ %27, %21 ], [ null, %28 ]
  %31 = load ptr, ptr %3, align 8, !tbaa !14
  %32 = getelementptr inbounds nuw %struct.Vec_Int_t_, ptr %31, i32 0, i32 2
  store ptr %30, ptr %32, align 8, !tbaa !25
  %33 = load ptr, ptr %3, align 8, !tbaa !14
  call void @llvm.lifetime.end.p0(i64 8, ptr %3) #12
  ret ptr %33
}

; Function Attrs: inlinehint nounwind uwtable
define internal ptr @Vec_IntStartFull(i32 noundef %0) #4 {
  %2 = alloca i32, align 4
  %3 = alloca ptr, align 8
  store i32 %0, ptr %2, align 4, !tbaa !3
  call void @llvm.lifetime.start.p0(i64 8, ptr %3) #12
  %4 = load i32, ptr %2, align 4, !tbaa !3
  %5 = call ptr @Vec_IntAlloc(i32 noundef %4)
  store ptr %5, ptr %3, align 8, !tbaa !14
  %6 = load i32, ptr %2, align 4, !tbaa !3
  %7 = load ptr, ptr %3, align 8, !tbaa !14
  %8 = getelementptr inbounds nuw %struct.Vec_Int_t_, ptr %7, i32 0, i32 1
  store i32 %6, ptr %8, align 4, !tbaa !22
  %9 = load ptr, ptr %3, align 8, !tbaa !14
  %10 = getelementptr inbounds nuw %struct.Vec_Int_t_, ptr %9, i32 0, i32 2
  %11 = load ptr, ptr %10, align 8, !tbaa !25
  %12 = icmp ne ptr %11, null
  br i1 %12, label %13, label %20

13:                                               ; preds = %1
  %14 = load ptr, ptr %3, align 8, !tbaa !14
  %15 = getelementptr inbounds nuw %struct.Vec_Int_t_, ptr %14, i32 0, i32 2
  %16 = load ptr, ptr %15, align 8, !tbaa !25
  %17 = load i32, ptr %2, align 4, !tbaa !3
  %18 = sext i32 %17 to i64
  %19 = mul i64 4, %18
  call void @llvm.memset.p0.i64(ptr align 4 %16, i8 -1, i64 %19, i1 false)
  br label %20

20:                                               ; preds = %13, %1
  %21 = load ptr, ptr %3, align 8, !tbaa !14
  call void @llvm.lifetime.end.p0(i64 8, ptr %3) #12
  ret ptr %21
}

; Function Attrs: inlinehint nounwind uwtable
define internal i32 @Abc_PrimeCudd(i32 noundef %0) #4 {
  %2 = alloca i32, align 4
  %3 = alloca i32, align 4
  %4 = alloca i32, align 4
  store i32 %0, ptr %2, align 4, !tbaa !3
  call void @llvm.lifetime.start.p0(i64 4, ptr %3) #12
  call void @llvm.lifetime.start.p0(i64 4, ptr %4) #12
  %5 = load i32, ptr %2, align 4, !tbaa !3
  %6 = add i32 %5, -1
  store i32 %6, ptr %2, align 4, !tbaa !3
  br label %7

7:                                                ; preds = %32, %1
  %8 = load i32, ptr %2, align 4, !tbaa !3
  %9 = add i32 %8, 1
  store i32 %9, ptr %2, align 4, !tbaa !3
  %10 = load i32, ptr %2, align 4, !tbaa !3
  %11 = and i32 %10, 1
  %12 = icmp ne i32 %11, 0
  br i1 %12, label %13, label %30

13:                                               ; preds = %7
  store i32 1, ptr %4, align 4, !tbaa !3
  store i32 3, ptr %3, align 4, !tbaa !3
  br label %14

14:                                               ; preds = %26, %13
  %15 = load i32, ptr %3, align 4, !tbaa !3
  %16 = load i32, ptr %3, align 4, !tbaa !3
  %17 = mul nsw i32 %15, %16
  %18 = load i32, ptr %2, align 4, !tbaa !3
  %19 = icmp ule i32 %17, %18
  br i1 %19, label %20, label %29

20:                                               ; preds = %14
  %21 = load i32, ptr %2, align 4, !tbaa !3
  %22 = load i32, ptr %3, align 4, !tbaa !3
  %23 = urem i32 %21, %22
  %24 = icmp eq i32 %23, 0
  br i1 %24, label %25, label %26

25:                                               ; preds = %20
  store i32 0, ptr %4, align 4, !tbaa !3
  br label %29

26:                                               ; preds = %20
  %27 = load i32, ptr %3, align 4, !tbaa !3
  %28 = add nsw i32 %27, 2
  store i32 %28, ptr %3, align 4, !tbaa !3
  br label %14, !llvm.loop !143

29:                                               ; preds = %25, %14
  br label %31

30:                                               ; preds = %7
  store i32 0, ptr %4, align 4, !tbaa !3
  br label %31

31:                                               ; preds = %30, %29
  br label %32

32:                                               ; preds = %31
  %33 = load i32, ptr %4, align 4, !tbaa !3
  %34 = icmp ne i32 %33, 0
  %35 = xor i1 %34, true
  br i1 %35, label %7, label %36, !llvm.loop !144

36:                                               ; preds = %32
  %37 = load i32, ptr %2, align 4, !tbaa !3
  call void @llvm.lifetime.end.p0(i64 4, ptr %4) #12
  call void @llvm.lifetime.end.p0(i64 4, ptr %3) #12
  ret i32 %37
}

; Function Attrs: inlinehint nounwind uwtable
define internal void @Vec_MemHashAlloc(ptr noundef %0, i32 noundef %1) #4 {
  %3 = alloca ptr, align 8
  %4 = alloca i32, align 4
  store ptr %0, ptr %3, align 8, !tbaa !53
  store i32 %1, ptr %4, align 4, !tbaa !3
  %5 = load i32, ptr %4, align 4, !tbaa !3
  %6 = call i32 @Abc_PrimeCudd(i32 noundef %5)
  %7 = call ptr @Vec_IntStartFull(i32 noundef %6)
  %8 = load ptr, ptr %3, align 8, !tbaa !53
  %9 = getelementptr inbounds nuw %struct.Vec_Mem_t_, ptr %8, i32 0, i32 7
  store ptr %7, ptr %9, align 8, !tbaa !71
  %10 = load i32, ptr %4, align 4, !tbaa !3
  %11 = call ptr @Vec_IntAlloc(i32 noundef %10)
  %12 = load ptr, ptr %3, align 8, !tbaa !53
  %13 = getelementptr inbounds nuw %struct.Vec_Mem_t_, ptr %12, i32 0, i32 8
  store ptr %11, ptr %13, align 8, !tbaa !72
  ret void
}

; Function Attrs: inlinehint nounwind uwtable
define internal ptr @Vec_MemAlloc(i32 noundef %0, i32 noundef %1) #4 {
  %3 = alloca i32, align 4
  %4 = alloca i32, align 4
  %5 = alloca ptr, align 8
  store i32 %0, ptr %3, align 4, !tbaa !3
  store i32 %1, ptr %4, align 4, !tbaa !3
  call void @llvm.lifetime.start.p0(i64 8, ptr %5) #12
  %6 = call noalias ptr @calloc(i64 noundef 1, i64 noundef 48) #13
  store ptr %6, ptr %5, align 8, !tbaa !53
  %7 = load i32, ptr %3, align 4, !tbaa !3
  %8 = load ptr, ptr %5, align 8, !tbaa !53
  %9 = getelementptr inbounds nuw %struct.Vec_Mem_t_, ptr %8, i32 0, i32 0
  store i32 %7, ptr %9, align 8, !tbaa !66
  %10 = load i32, ptr %4, align 4, !tbaa !3
  %11 = load ptr, ptr %5, align 8, !tbaa !53
  %12 = getelementptr inbounds nuw %struct.Vec_Mem_t_, ptr %11, i32 0, i32 2
  store i32 %10, ptr %12, align 8, !tbaa !65
  %13 = load ptr, ptr %5, align 8, !tbaa !53
  %14 = getelementptr inbounds nuw %struct.Vec_Mem_t_, ptr %13, i32 0, i32 2
  %15 = load i32, ptr %14, align 8, !tbaa !65
  %16 = shl i32 1, %15
  %17 = sub nsw i32 %16, 1
  %18 = load ptr, ptr %5, align 8, !tbaa !53
  %19 = getelementptr inbounds nuw %struct.Vec_Mem_t_, ptr %18, i32 0, i32 3
  store i32 %17, ptr %19, align 4, !tbaa !67
  %20 = load ptr, ptr %5, align 8, !tbaa !53
  %21 = getelementptr inbounds nuw %struct.Vec_Mem_t_, ptr %20, i32 0, i32 5
  store i32 -1, ptr %21, align 4, !tbaa !70
  %22 = load ptr, ptr %5, align 8, !tbaa !53
  call void @llvm.lifetime.end.p0(i64 8, ptr %5) #12
  ret ptr %22
}

; Function Attrs: inlinehint nounwind uwtable
define internal ptr @Vec_MemAllocForTTSimple(i32 noundef %0) #4 {
  %2 = alloca i32, align 4
  %3 = alloca i32, align 4
  %4 = alloca ptr, align 8
  store i32 %0, ptr %2, align 4, !tbaa !3
  call void @llvm.lifetime.start.p0(i64 4, ptr %3) #12
  %5 = load i32, ptr %2, align 4, !tbaa !3
  %6 = icmp sle i32 %5, 6
  br i1 %6, label %7, label %8

7:                                                ; preds = %1
  br label %12

8:                                                ; preds = %1
  %9 = load i32, ptr %2, align 4, !tbaa !3
  %10 = sub nsw i32 %9, 6
  %11 = shl i32 1, %10
  br label %12

12:                                               ; preds = %8, %7
  %13 = phi i32 [ 1, %7 ], [ %11, %8 ]
  store i32 %13, ptr %3, align 4, !tbaa !3
  call void @llvm.lifetime.start.p0(i64 8, ptr %4) #12
  %14 = load i32, ptr %3, align 4, !tbaa !3
  %15 = call ptr @Vec_MemAlloc(i32 noundef %14, i32 noundef 12)
  store ptr %15, ptr %4, align 8, !tbaa !53
  %16 = load ptr, ptr %4, align 8, !tbaa !53
  call void @Vec_MemHashAlloc(ptr noundef %16, i32 noundef 10000)
  %17 = load ptr, ptr %4, align 8, !tbaa !53
  call void @llvm.lifetime.end.p0(i64 8, ptr %4) #12
  call void @llvm.lifetime.end.p0(i64 4, ptr %3) #12
  ret ptr %17
}