; Function Attrs: inlinehint nofree nounwind memory(write, argmem: none, inaccessiblemem: readwrite) uwtable
define internal fastcc noalias noundef ptr @Vec_MemAllocForTTSimple(i32 noundef %0) unnamed_addr #13 {
  %2 = icmp slt i32 %0, 7
  %3 = add nsw i32 %0, -6
  %4 = shl nuw i32 1, %3
  %5 = select i1 %2, i32 1, i32 %4
  %6 = tail call noalias dereferenceable_or_null(48) ptr @calloc(i64 noundef 1, i64 noundef 48) #27
  store i32 %5, ptr %6, align 8, !tbaa !67
  %7 = getelementptr inbounds nuw i8, ptr %6, i64 8
  store i32 12, ptr %7, align 8, !tbaa !65
  %8 = getelementptr inbounds nuw i8, ptr %6, i64 12
  store i32 4095, ptr %8, align 4, !tbaa !68
  %9 = getelementptr inbounds nuw i8, ptr %6, i64 20
  store i32 -1, ptr %9, align 4, !tbaa !70
  br label %.loopexit.i.i

.loopexit.i.i:                                    ; preds = %.loopexit.i.i.backedge, %1
  %.012.i.i = phi i32 [ 9999, %1 ], [ %10, %.loopexit.i.i.backedge ]
  %10 = add i32 %.012.i.i, 1
  %11 = and i32 %.012.i.i, 1
  %.not.not.i.i = icmp eq i32 %11, 0
  br i1 %.not.not.i.i, label %.preheader.i.i, label %.loopexit.i.i.backedge

.loopexit.i.i.backedge:                           ; preds = %.lr.ph.i.i, %.loopexit.i.i
  br label %.loopexit.i.i, !llvm.loop !71

.preheader.i.i:                                   ; preds = %.loopexit.i.i
  %.not15.i.i = icmp ult i32 %10, 9
  br i1 %.not15.i.i, label %Abc_PrimeCudd.exit.i, label %.lr.ph.i.i

12:                                               ; preds = %.lr.ph.i.i
  %13 = add nuw nsw i32 %.01116.i.i, 2
  %14 = mul nuw nsw i32 %13, %13
  %.not.i.i = icmp ugt i32 %14, %10
  br i1 %.not.i.i, label %Abc_PrimeCudd.exit.i, label %.lr.ph.i.i, !llvm.loop !72

.lr.ph.i.i:                                       ; preds = %.preheader.i.i, %12
  %.01116.i.i = phi i32 [ %13, %12 ], [ 3, %.preheader.i.i ]
  %15 = urem i32 %10, %.01116.i.i
  %16 = icmp eq i32 %15, 0
  br i1 %16, label %.loopexit.i.i.backedge, label %12, !llvm.loop !71

Abc_PrimeCudd.exit.i:                             ; preds = %.preheader.i.i, %12
  %17 = tail call noalias dereferenceable_or_null(16) ptr @malloc(i64 noundef 16) #28
  %or.cond.i.i.i = icmp ult i32 %.012.i.i, 15
  %spec.store.select.i.i.i = select i1 %or.cond.i.i.i, i32 16, i32 %10
  store i32 %spec.store.select.i.i.i, ptr %17, align 8, !tbaa !14
  %18 = getelementptr inbounds nuw i8, ptr %17, i64 4
  %19 = sext i32 %spec.store.select.i.i.i to i64
  %20 = shl nsw i64 %19, 2
  %21 = tail call noalias ptr @malloc(i64 noundef %20) #28
  %22 = getelementptr inbounds nuw i8, ptr %17, i64 8
  store ptr %21, ptr %22, align 8, !tbaa !15
  store i32 %10, ptr %18, align 4, !tbaa !9
  %.not.i3.i = icmp eq ptr %21, null
  br i1 %.not.i3.i, label %Vec_MemHashAlloc.exit, label %23

23:                                               ; preds = %Abc_PrimeCudd.exit.i
  %24 = sext i32 %10 to i64
  %25 = shl nsw i64 %24, 2
  tail call void @llvm.memset.p0.i64(ptr nonnull align 4 %21, i8 -1, i64 %25, i1 false)
  br label %Vec_MemHashAlloc.exit

Vec_MemHashAlloc.exit:                            ; preds = %Abc_PrimeCudd.exit.i, %23
  %26 = getelementptr inbounds nuw i8, ptr %6, i64 32
  store ptr %17, ptr %26, align 8, !tbaa !73
  %27 = tail call noalias dereferenceable_or_null(16) ptr @malloc(i64 noundef 16) #28
  %28 = getelementptr inbounds nuw i8, ptr %27, i64 4
  store i32 0, ptr %28, align 4, !tbaa !9
  store i32 10000, ptr %27, align 8, !tbaa !14
  %29 = tail call noalias dereferenceable_or_null(40000) ptr @malloc(i64 noundef 40000) #28
  %30 = getelementptr inbounds nuw i8, ptr %27, i64 8
  store ptr %29, ptr %30, align 8, !tbaa !15
  %31 = getelementptr inbounds nuw i8, ptr %6, i64 40
  store ptr %27, ptr %31, align 8, !tbaa !74
  ret ptr %6
}